target datalayout = "e-m:e-p270:32:32-p271:32:32-p272:64:64-i64:64-i128:128-f80:128-n8:16:32:64-S128"
target triple = "x86_64-pc-linux-gnu"

%struct.asn1_string_st = type { i32, i32, ptr, i64 }

@.str = private unnamed_addr constant [31 x i8] c"../openssl/crypto/asn1/a_int.c\00", align 1
@__func__.ossl_c2i_ASN1_INTEGER = private unnamed_addr constant [22 x i8] c"ossl_c2i_ASN1_INTEGER\00", align 1

; Function Attrs: nounwind uwtable
define ptr @ossl_c2i_ASN1_INTEGER(ptr noundef %0, ptr noundef %1, i64 noundef %2) #0 {
  %4 = alloca ptr, align 8
  %5 = alloca ptr, align 8
  %6 = alloca ptr, align 8
  %7 = alloca i64, align 8
  %8 = alloca ptr, align 8
  %9 = alloca i64, align 8
  %10 = alloca i32, align 4
  %11 = alloca i32, align 4
  store ptr %0, ptr %5, align 8, !tbaa !23
  store ptr %1, ptr %6, align 8, !tbaa !14
  store i64 %2, ptr %7, align 8, !tbaa !19
  call void @llvm.lifetime.start.p0(i64 8, ptr %8) #4
  store ptr null, ptr %8, align 8, !tbaa !3
  call void @llvm.lifetime.start.p0(i64 8, ptr %9) #4
  call void @llvm.lifetime.start.p0(i64 4, ptr %10) #4
  %12 = load ptr, ptr %6, align 8, !tbaa !14
  %13 = load ptr, ptr %12, align 8, !tbaa !18
  %14 = load i64, ptr %7, align 8, !tbaa !19
  %15 = call i64 @c2i_ibuf(ptr noundef null, ptr noundef null, ptr noundef %13, i64 noundef %14)
  store i64 %15, ptr %9, align 8, !tbaa !19
  %16 = load i64, ptr %9, align 8, !tbaa !19
  %17 = icmp eq i64 %16, 0
  br i1 %17, label %18, label %19

18:                                               ; preds = %3
  store ptr null, ptr %4, align 8
  store i32 1, ptr %11, align 4
  br label %87

19:                                               ; preds = %3
  %20 = load ptr, ptr %5, align 8, !tbaa !23
  %21 = icmp eq ptr %20, null
  br i1 %21, label %26, label %22

22:                                               ; preds = %19
  %23 = load ptr, ptr %5, align 8, !tbaa !23
  %24 = load ptr, ptr %23, align 8, !tbaa !3
  %25 = icmp eq ptr %24, null
  br i1 %25, label %26, label %34

26:                                               ; preds = %22, %19
  %27 = call ptr @ASN1_INTEGER_new()
  store ptr %27, ptr %8, align 8, !tbaa !3
  %28 = load ptr, ptr %8, align 8, !tbaa !3
  %29 = icmp eq ptr %28, null
  br i1 %29, label %30, label %31

30:                                               ; preds = %26
  store ptr null, ptr %4, align 8
  store i32 1, ptr %11, align 4
  br label %87

31:                                               ; preds = %26
  %32 = load ptr, ptr %8, align 8, !tbaa !3
  %33 = getelementptr inbounds nuw %struct.asn1_string_st, ptr %32, i32 0, i32 1
  store i32 2, ptr %33, align 4, !tbaa !8
  br label %37

34:                                               ; preds = %22
  %35 = load ptr, ptr %5, align 8, !tbaa !23
  %36 = load ptr, ptr %35, align 8, !tbaa !3
  store ptr %36, ptr %8, align 8, !tbaa !3
  br label %37

37:                                               ; preds = %34, %31
  %38 = load ptr, ptr %8, align 8, !tbaa !3
  %39 = load i64, ptr %9, align 8, !tbaa !19
  %40 = trunc i64 %39 to i32
  %41 = call i32 @ASN1_STRING_set(ptr noundef %38, ptr noundef null, i32 noundef %40)
  %42 = icmp eq i32 %41, 0
  br i1 %42, label %43, label %44

43:                                               ; preds = %37
  call void @ERR_new()
  call void @ERR_set_debug(ptr noundef @.str, i32 noundef 311, ptr noundef @__func__.ossl_c2i_ASN1_INTEGER)
  call void (i32, i32, ptr, ...) @ERR_set_error(i32 noundef 13, i32 noundef 524301, ptr noundef null)
  br label %76

44:                                               ; preds = %37
  %45 = load ptr, ptr %8, align 8, !tbaa !3
  %46 = getelementptr inbounds nuw %struct.asn1_string_st, ptr %45, i32 0, i32 2
  %47 = load ptr, ptr %46, align 8, !tbaa !16
  %48 = load ptr, ptr %6, align 8, !tbaa !14
  %49 = load ptr, ptr %48, align 8, !tbaa !18
  %50 = load i64, ptr %7, align 8, !tbaa !19
  %51 = call i64 @c2i_ibuf(ptr noundef %47, ptr noundef %10, ptr noundef %49, i64 noundef %50)
  %52 = load i32, ptr %10, align 4, !tbaa !13
  %53 = icmp ne i32 %52, 0
  br i1 %53, label %54, label %59

54:                                               ; preds = %44
  %55 = load ptr, ptr %8, align 8, !tbaa !3
  %56 = getelementptr inbounds nuw %struct.asn1_string_st, ptr %55, i32 0, i32 1
  %57 = load i32, ptr %56, align 4, !tbaa !8
  %58 = or i32 %57, 256
  store i32 %58, ptr %56, align 4, !tbaa !8
  br label %64

59:                                               ; preds = %44
  %60 = load ptr, ptr %8, align 8, !tbaa !3
  %61 = getelementptr inbounds nuw %struct.asn1_string_st, ptr %60, i32 0, i32 1
  %62 = load i32, ptr %61, align 4, !tbaa !8
  %63 = and i32 %62, -257
  store i32 %63, ptr %61, align 4, !tbaa !8
  br label %64

64:                                               ; preds = %59, %54
  %65 = load i64, ptr %7, align 8, !tbaa !19
  %66 = load ptr, ptr %6, align 8, !tbaa !14
  %67 = load ptr, ptr %66, align 8, !tbaa !18
  %68 = getelementptr inbounds i8, ptr %67, i64 %65
  store ptr %68, ptr %66, align 8, !tbaa !18
  %69 = load ptr, ptr %5, align 8, !tbaa !23
  %70 = icmp ne ptr %69, null
  br i1 %70, label %71, label %74

71:                                               ; preds = %64
  %72 = load ptr, ptr %8, align 8, !tbaa !3
  %73 = load ptr, ptr %5, align 8, !tbaa !23
  store ptr %72, ptr %73, align 8, !tbaa !3
  br label %74

74:                                               ; preds = %71, %64
  %75 = load ptr, ptr %8, align 8, !tbaa !3
  store ptr %75, ptr %4, align 8
  store i32 1, ptr %11, align 4
  br label %87

76:                                               ; preds = %43
  %77 = load ptr, ptr %5, align 8, !tbaa !23
  %78 = icmp eq ptr %77, null
  br i1 %78, label %84, label %79

79:                                               ; preds = %76
  %80 = load ptr, ptr %5, align 8, !tbaa !23
  %81 = load ptr, ptr %80, align 8, !tbaa !3
  %82 = load ptr, ptr %8, align 8, !tbaa !3
  %83 = icmp ne ptr %81, %82
  br i1 %83, label %84, label %86

84:                                               ; preds = %79, %76
  %85 = load ptr, ptr %8, align 8, !tbaa !3
  call void @ASN1_INTEGER_free(ptr noundef %85)
  br label %86

86:                                               ; preds = %84, %79
  store ptr null, ptr %4, align 8
  store i32 1, ptr %11, align 4
  br label %87

87:                                               ; preds = %86, %74, %30, %18
  call void @llvm.lifetime.end.p0(i64 4, ptr %10) #4
  call void @llvm.lifetime.end.p0(i64 8, ptr %9) #4
  call void @llvm.lifetime.end.p0(i64 8, ptr %8) #4
  %88 = load ptr, ptr %4, align 8
  ret ptr %88
}