; Function Attrs: nounwind uwtable
define noundef ptr @ossl_c2i_ASN1_INTEGER(ptr noundef captures(address_is_null) %0, ptr noundef captures(none) %1, i64 noundef %2) local_unnamed_addr #0 {
  %4 = alloca i32, align 4
  call void @llvm.lifetime.start.p0(i64 4, ptr nonnull %4) #6
  %5 = load ptr, ptr %1, align 8, !tbaa !16
  %6 = tail call fastcc i64 @c2i_ibuf(ptr noundef null, ptr noundef null, ptr noundef %5, i64 noundef %2)
  %7 = icmp eq i64 %6, 0
  br i1 %7, label %38, label %8

8:                                                ; preds = %3
  %9 = icmp eq ptr %0, null
  br i1 %9, label %13, label %10

10:                                               ; preds = %8
  %11 = load ptr, ptr %0, align 8, !tbaa !18
  %12 = icmp eq ptr %11, null
  br i1 %12, label %13, label %18

13:                                               ; preds = %10, %8
  %14 = tail call ptr @ASN1_INTEGER_new() #6
  %15 = icmp eq ptr %14, null
  br i1 %15, label %38, label %16

16:                                               ; preds = %13
  %17 = getelementptr inbounds nuw i8, ptr %14, i64 4
  store i32 2, ptr %17, align 4, !tbaa !3
  br label %18

18:                                               ; preds = %10, %16
  %.025 = phi ptr [ %14, %16 ], [ %11, %10 ]
  %19 = trunc i64 %6 to i32
  %20 = tail call i32 @ASN1_STRING_set(ptr noundef nonnull %.025, ptr noundef null, i32 noundef %19) #6
  %21 = icmp eq i32 %20, 0
  br i1 %21, label %22, label %23

22:                                               ; preds = %18
  tail call void @ERR_new() #6
  tail call void @ERR_set_debug(ptr noundef nonnull @.str, i32 noundef 311, ptr noundef nonnull @__func__.ossl_c2i_ASN1_INTEGER) #6
  tail call void (i32, i32, ptr, ...) @ERR_set_error(i32 noundef 13, i32 noundef 524301, ptr noundef null) #6
  br i1 %9, label %37, label %35

23:                                               ; preds = %18
  %24 = getelementptr inbounds nuw i8, ptr %.025, i64 8
  %25 = load ptr, ptr %24, align 8, !tbaa !11
  %26 = load ptr, ptr %1, align 8, !tbaa !16
  %27 = call fastcc i64 @c2i_ibuf(ptr noundef %25, ptr noundef nonnull %4, ptr noundef %26, i64 noundef %2)
  %28 = load i32, ptr %4, align 4, !tbaa !20
  %.not = icmp eq i32 %28, 0
  %29 = getelementptr inbounds nuw i8, ptr %.025, i64 4
  %30 = load i32, ptr %29, align 4, !tbaa !3
  %31 = and i32 %30, -257
  %masksel = select i1 %.not, i32 0, i32 256
  %.sink = or disjoint i32 %31, %masksel
  store i32 %.sink, ptr %29, align 4, !tbaa !3
  %32 = load ptr, ptr %1, align 8, !tbaa !16
  %33 = getelementptr inbounds i8, ptr %32, i64 %2
  store ptr %33, ptr %1, align 8, !tbaa !16
  br i1 %9, label %38, label %34

34:                                               ; preds = %23
  store ptr %.025, ptr %0, align 8, !tbaa !18
  br label %38

35:                                               ; preds = %22
  %36 = load ptr, ptr %0, align 8, !tbaa !18
  %.not31 = icmp eq ptr %36, %.025
  br i1 %.not31, label %38, label %37

37:                                               ; preds = %35, %22
  tail call void @ASN1_INTEGER_free(ptr noundef nonnull %.025) #6
  br label %38

38:                                               ; preds = %35, %37, %23, %34, %13, %3
  %.0 = phi ptr [ null, %3 ], [ null, %13 ], [ %.025, %34 ], [ %.025, %23 ], [ null, %37 ], [ null, %35 ]
  call void @llvm.lifetime.end.p0(i64 4, ptr nonnull %4) #6
  ret ptr %.0
}